target datalayout = "e-m:e-p270:32:32-p271:32:32-p272:64:64-i64:64-i128:128-f80:128-n8:16:32:64-S128"
target triple = "x86_64-pc-linux-gnu"

; Function Attrs: nounwind uwtable
define internal i32 @findIdx(i32 noundef %0, ptr noundef %1, i32 noundef %2) #0 {
  %4 = alloca i32, align 4
  %5 = alloca i32, align 4
  %6 = alloca ptr, align 8
  %7 = alloca i32, align 4
  %8 = alloca i32, align 4
  store i32 %0, ptr %5, align 4
  store ptr %1, ptr %6, align 8
  store i32 %2, ptr %7, align 4
  %9 = load i32, ptr %5, align 4
  %10 = and i32 %9, -16777216
  %11 = icmp eq i32 %10, 0
  br i1 %11, label %12, label %32

12:                                               ; preds = %3
  store i32 0, ptr %8, align 4
  br label %13

13:                                               ; preds = %28, %12
  %14 = load i32, ptr %8, align 4
  %15 = load i32, ptr %7, align 4
  %16 = icmp slt i32 %14, %15
  br i1 %16, label %17, label %31

17:                                               ; preds = %13
  %18 = load ptr, ptr %6, align 8
  %19 = load i32, ptr %8, align 4
  %20 = sext i32 %19 to i64
  %21 = getelementptr inbounds i32, ptr %18, i64 %20
  %22 = load i32, ptr %21, align 4
  %23 = and i32 %22, -16777216
  %24 = icmp eq i32 %23, 0
  br i1 %24, label %25, label %27

25:                                               ; preds = %17
  %26 = load i32, ptr %8, align 4
  store i32 %26, ptr %4, align 4
  br label %53

27:                                               ; preds = %17
  br label %28

28:                                               ; preds = %27
  %29 = load i32, ptr %8, align 4
  %30 = add nsw i32 %29, 1
  store i32 %30, ptr %8, align 4
  br label %13, !llvm.loop !13

31:                                               ; preds = %13
  br label %52

32:                                               ; preds = %3
  store i32 0, ptr %8, align 4
  br label %33

33:                                               ; preds = %48, %32
  %34 = load i32, ptr %8, align 4
  %35 = load i32, ptr %7, align 4
  %36 = icmp slt i32 %34, %35
  br i1 %36, label %37, label %51

37:                                               ; preds = %33
  %38 = load ptr, ptr %6, align 8
  %39 = load i32, ptr %8, align 4
  %40 = sext i32 %39 to i64
  %41 = getelementptr inbounds i32, ptr %38, i64 %40
  %42 = load i32, ptr %41, align 4
  %43 = load i32, ptr %5, align 4
  %44 = icmp eq i32 %42, %43
  br i1 %44, label %45, label %47

45:                                               ; preds = %37
  %46 = load i32, ptr %8, align 4
  store i32 %46, ptr %4, align 4
  br label %53

47:                                               ; preds = %37
  br label %48

48:                                               ; preds = %47
  %49 = load i32, ptr %8, align 4
  %50 = add nsw i32 %49, 1
  store i32 %50, ptr %8, align 4
  br label %33, !llvm.loop !14

51:                                               ; preds = %33
  br label %52

52:                                               ; preds = %51, %31
  store i32 -1, ptr %4, align 4
  br label %53

53:                                               ; preds = %52, %45, %25
  %54 = load i32, ptr %4, align 4
  ret i32 %54
}

; Function Attrs: nounwind uwtable
define internal i32 @compareLUTs(ptr noundef %0, i32 noundef %1, i32 noundef %2, ptr noundef %3, i32 noundef %4, ptr noundef %5, ptr noundef %6, ptr noundef %7, ptr noundef %8) #0 {
  %10 = alloca i32, align 4
  %11 = alloca ptr, align 8
  %12 = alloca i32, align 4
  %13 = alloca i32, align 4
  %14 = alloca ptr, align 8
  %15 = alloca i32, align 4
  %16 = alloca ptr, align 8
  %17 = alloca ptr, align 8
  %18 = alloca ptr, align 8
  %19 = alloca ptr, align 8
  %20 = alloca i32, align 4
  %21 = alloca i32, align 4
  %22 = alloca i32, align 4
  %23 = alloca i32, align 4
  %24 = alloca i32, align 4
  %25 = alloca i32, align 4
  store ptr %0, ptr %11, align 8
  store i32 %1, ptr %12, align 4
  store i32 %2, ptr %13, align 4
  store ptr %3, ptr %14, align 8
  store i32 %4, ptr %15, align 4
  store ptr %5, ptr %16, align 8
  store ptr %6, ptr %17, align 8
  store ptr %7, ptr %18, align 8
  store ptr %8, ptr %19, align 8
  store i32 -1, ptr %22, align 4
  store i32 0, ptr %24, align 4
  %26 = load i32, ptr %12, align 4
  %27 = load i32, ptr %15, align 4
  %28 = icmp sgt i32 %26, %27
  br i1 %28, label %29, label %31

29:                                               ; preds = %9
  %30 = load i32, ptr %12, align 4
  br label %33

31:                                               ; preds = %9
  %32 = load i32, ptr %15, align 4
  br label %33

33:                                               ; preds = %31, %29
  %34 = phi i32 [ %30, %29 ], [ %32, %31 ]
  store i32 %34, ptr %25, align 4
  %35 = load ptr, ptr %19, align 8
  store i32 2, ptr %35, align 4
  store i32 0, ptr %20, align 4
  br label %36

36:                                               ; preds = %47, %33
  %37 = load i32, ptr %20, align 4
  %38 = load i32, ptr %25, align 4
  %39 = icmp slt i32 %37, %38
  br i1 %39, label %40, label %50

40:                                               ; preds = %36
  %41 = load i32, ptr %20, align 4
  %42 = trunc i32 %41 to i8
  %43 = load ptr, ptr %16, align 8
  %44 = load i32, ptr %20, align 4
  %45 = sext i32 %44 to i64
  %46 = getelementptr inbounds i8, ptr %43, i64 %45
  store i8 %42, ptr %46, align 1
  br label %47

47:                                               ; preds = %40
  %48 = load i32, ptr %20, align 4
  %49 = add nsw i32 %48, 1
  store i32 %49, ptr %20, align 4
  br label %36, !llvm.loop !11

50:                                               ; preds = %36
  store i32 0, ptr %20, align 4
  br label %51

51:                                               ; preds = %141, %50
  %52 = load i32, ptr %20, align 4
  %53 = load i32, ptr %15, align 4
  %54 = icmp slt i32 %52, %53
  br i1 %54, label %55, label %144

55:                                               ; preds = %51
  %56 = load i32, ptr %20, align 4
  %57 = load i32, ptr %12, align 4
  %58 = icmp sge i32 %56, %57
  br i1 %58, label %71, label %59

59:                                               ; preds = %55
  %60 = load ptr, ptr %11, align 8
  %61 = load i32, ptr %20, align 4
  %62 = sext i32 %61 to i64
  %63 = getelementptr inbounds i32, ptr %60, i64 %62
  %64 = load i32, ptr %63, align 4
  %65 = load ptr, ptr %14, align 8
  %66 = load i32, ptr %20, align 4
  %67 = sext i32 %66 to i64
  %68 = getelementptr inbounds i32, ptr %65, i64 %67
  %69 = load i32, ptr %68, align 4
  %70 = icmp ne i32 %64, %69
  br i1 %70, label %71, label %140

71:                                               ; preds = %59, %55
  %72 = load ptr, ptr %14, align 8
  %73 = load i32, ptr %20, align 4
  %74 = sext i32 %73 to i64
  %75 = getelementptr inbounds i32, ptr %72, i64 %74
  %76 = load i32, ptr %75, align 4
  store i32 %76, ptr %23, align 4
  %77 = load i32, ptr %23, align 4
  %78 = and i32 %77, -16777216
  %79 = icmp eq i32 %78, 0
  br i1 %79, label %80, label %106

80:                                               ; preds = %71
  %81 = load i32, ptr %13, align 4
  %82 = icmp eq i32 %81, -1
  br i1 %82, label %83, label %99

83:                                               ; preds = %80
  %84 = load i32, ptr %12, align 4
  %85 = icmp slt i32 %84, 256
  br i1 %85, label %86, label %97

86:                                               ; preds = %83
  %87 = load i32, ptr %12, align 4
  %88 = trunc i32 %87 to i8
  %89 = load ptr, ptr %16, align 8
  %90 = load i32, ptr %20, align 4
  %91 = sext i32 %90 to i64
  %92 = getelementptr inbounds i8, ptr %89, i64 %91
  store i8 %88, ptr %92, align 1
  %93 = load i32, ptr %20, align 4
  store i32 %93, ptr %22, align 4
  %94 = load i32, ptr %20, align 4
  store i32 %94, ptr %13, align 4
  %95 = load i32, ptr %12, align 4
  %96 = add nsw i32 %95, 1
  store i32 %96, ptr %12, align 4
  store i32 1, ptr %24, align 4
  br label %98

97:                                               ; preds = %83
  store i32 0, ptr %10, align 4
  br label %158

98:                                               ; preds = %86
  br label %99

99:                                               ; preds = %98, %80
  %100 = load i32, ptr %13, align 4
  %101 = trunc i32 %100 to i8
  %102 = load ptr, ptr %16, align 8
  %103 = load i32, ptr %20, align 4
  %104 = sext i32 %103 to i64
  %105 = getelementptr inbounds i8, ptr %102, i64 %104
  store i8 %101, ptr %105, align 1
  br label %139

106:                                              ; preds = %71
  %107 = load i32, ptr %23, align 4
  %108 = load ptr, ptr %11, align 8
  %109 = load i32, ptr %12, align 4
  %110 = call i32 @findIdx(i32 noundef %107, ptr noundef %108, i32 noundef %109)
  store i32 %110, ptr %21, align 4
  %111 = icmp eq i32 %110, -1
  br i1 %111, label %112, label %131

112:                                              ; preds = %106
  %113 = load i32, ptr %12, align 4
  %114 = icmp slt i32 %113, 256
  br i1 %114, label %115, label %129

115:                                              ; preds = %112
  %116 = load i32, ptr %23, align 4
  %117 = load ptr, ptr %11, align 8
  %118 = load i32, ptr %12, align 4
  %119 = sext i32 %118 to i64
  %120 = getelementptr inbounds i32, ptr %117, i64 %119
  store i32 %116, ptr %120, align 4
  %121 = load i32, ptr %12, align 4
  %122 = trunc i32 %121 to i8
  %123 = load ptr, ptr %16, align 8
  %124 = load i32, ptr %20, align 4
  %125 = sext i32 %124 to i64
  %126 = getelementptr inbounds i8, ptr %123, i64 %125
  store i8 %122, ptr %126, align 1
  %127 = load i32, ptr %12, align 4
  %128 = add nsw i32 %127, 1
  store i32 %128, ptr %12, align 4
  store i32 1, ptr %24, align 4
  br label %130

129:                                              ; preds = %112
  store i32 0, ptr %10, align 4
  br label %158

130:                                              ; preds = %115
  br label %138

131:                                              ; preds = %106
  %132 = load i32, ptr %21, align 4
  %133 = trunc i32 %132 to i8
  %134 = load ptr, ptr %16, align 8
  %135 = load i32, ptr %20, align 4
  %136 = sext i32 %135 to i64
  %137 = getelementptr inbounds i8, ptr %134, i64 %136
  store i8 %133, ptr %137, align 1
  br label %138

138:                                              ; preds = %131, %130
  br label %139

139:                                              ; preds = %138, %99
  br label %140

140:                                              ; preds = %139, %59
  br label %141

141:                                              ; preds = %140
  %142 = load i32, ptr %20, align 4
  %143 = add nsw i32 %142, 1
  store i32 %143, ptr %20, align 4
  br label %51, !llvm.loop !12

144:                                              ; preds = %51
  %145 = load i32, ptr %24, align 4
  %146 = icmp ne i32 %145, 0
  br i1 %146, label %147, label %157

147:                                              ; preds = %144
  %148 = load ptr, ptr %19, align 8
  store i32 0, ptr %148, align 4
  %149 = load i32, ptr %12, align 4
  %150 = load ptr, ptr %17, align 8
  store i32 %149, ptr %150, align 4
  %151 = load i32, ptr %22, align 4
  %152 = icmp ne i32 %151, -1
  br i1 %152, label %153, label %156

153:                                              ; preds = %147
  %154 = load i32, ptr %22, align 4
  %155 = load ptr, ptr %18, align 8
  store i32 %154, ptr %155, align 4
  br label %156

156:                                              ; preds = %153, %147
  br label %157

157:                                              ; preds = %156, %144
  store i32 1, ptr %10, align 4
  br label %158

158:                                              ; preds = %157, %129, %97
  %159 = load i32, ptr %10, align 4
  ret i32 %159
}