; Function Attrs: nofree norecurse nosync nounwind memory(argmem: readwrite) uwtable
define internal fastcc range(i32 0, 2) i32 @compareLUTs(ptr nocapture noundef %0, i32 noundef %1, i32 noundef %2, ptr nocapture noundef readonly %3, i32 noundef %4, ptr nocapture noundef writeonly %5, ptr nocapture noundef writeonly %6, ptr nocapture noundef writeonly %7, ptr nocapture noundef writeonly %8) unnamed_addr #2 {
  %10 = tail call i32 @llvm.smax.i32(i32 %1, i32 %4)
  store i32 2, ptr %8, align 4
  %11 = icmp sgt i32 %10, 0
  br i1 %11, label %.lr.ph.preheader, label %.preheader

.lr.ph.preheader:                                 ; preds = %9
  %wide.trip.count = zext nneg i32 %10 to i64
  br label %.lr.ph

.preheader:                                       ; preds = %.lr.ph, %9
  %12 = icmp sgt i32 %4, 0
  br i1 %12, label %.lr.ph83.preheader, label %.loopexit

.lr.ph83.preheader:                               ; preds = %.preheader
  %wide.trip.count91 = zext nneg i32 %4 to i64
  br label %.lr.ph83.outer

.lr.ph:                                           ; preds = %.lr.ph.preheader, %.lr.ph
  %indvars.iv = phi i64 [ 0, %.lr.ph.preheader ], [ %indvars.iv.next, %.lr.ph ]
  %13 = trunc i64 %indvars.iv to i8
  %14 = getelementptr inbounds i8, ptr %5, i64 %indvars.iv
  store i8 %13, ptr %14, align 1
  %indvars.iv.next = add nuw nsw i64 %indvars.iv, 1
  %exitcond.not = icmp eq i64 %indvars.iv.next, %wide.trip.count
  br i1 %exitcond.not, label %.preheader, label %.lr.ph, !llvm.loop !11

.lr.ph83:                                         ; preds = %.lr.ph83.outer, %.thread
  %indvars.iv88 = phi i64 [ %indvars.iv.next89101, %.thread ], [ %indvars.iv88.ph, %.lr.ph83.outer ]
  %.05582 = phi i32 [ 1, %.thread ], [ %.05582.ph, %.lr.ph83.outer ]
  %.05681 = phi i32 [ %44, %.thread ], [ %.05681.ph, %.lr.ph83.outer ]
  %15 = sext i32 %.05681 to i64
  %.not69 = icmp slt i64 %indvars.iv88, %15
  br i1 %.not69, label %16, label %.lr.ph83._crit_edge

.lr.ph83._crit_edge:                              ; preds = %.lr.ph83
  %.phi.trans.insert = getelementptr inbounds i32, ptr %3, i64 %indvars.iv88
  %.pre = load i32, ptr %.phi.trans.insert, align 4
  br label %21

16:                                               ; preds = %.lr.ph83
  %17 = getelementptr inbounds i32, ptr %0, i64 %indvars.iv88
  %18 = load i32, ptr %17, align 4
  %19 = getelementptr inbounds i32, ptr %3, i64 %indvars.iv88
  %20 = load i32, ptr %19, align 4
  %.not70 = icmp eq i32 %18, %20
  br i1 %.not70, label %.loopexit112, label %21

21:                                               ; preds = %.lr.ph83._crit_edge, %16
  %22 = phi i32 [ %.pre, %.lr.ph83._crit_edge ], [ %20, %16 ]
  %23 = icmp ult i32 %22, 16777216
  br i1 %23, label %24, label %.preheader15.i

24:                                               ; preds = %21
  %25 = icmp eq i32 %.06279.ph, -1
  br i1 %25, label %26, label %31

26:                                               ; preds = %24
  %27 = icmp slt i32 %.05681, 256
  br i1 %27, label %28, label %.loopexit

28:                                               ; preds = %26
  %29 = add nuw nsw i32 %.05681, 1
  %30 = trunc nuw nsw i64 %indvars.iv88 to i32
  br label %31

31:                                               ; preds = %28, %24
  %.163 = phi i32 [ %30, %28 ], [ %.06279.ph, %24 ]
  %.160 = phi i32 [ %30, %28 ], [ %.05980.ph, %24 ]
  %.157 = phi i32 [ %29, %28 ], [ %.05681, %24 ]
  %.1 = phi i32 [ 1, %28 ], [ %.05582, %24 ]
  %32 = trunc i32 %.163 to i8
  br label %.loopexit112.sink.split

.preheader15.i:                                   ; preds = %21
  %33 = icmp sgt i32 %.05681, 0
  %wide.trip.count.i = zext nneg i32 %.05681 to i64
  br i1 %33, label %.lr.ph.i, label %.thread

.lr.ph.i:                                         ; preds = %.preheader15.i, %37
  %indvars.iv.i = phi i64 [ %indvars.iv.next.i, %37 ], [ 0, %.preheader15.i ]
  %34 = getelementptr inbounds i32, ptr %0, i64 %indvars.iv.i
  %35 = load i32, ptr %34, align 4
  %36 = icmp eq i32 %35, %22
  br i1 %36, label %findIdx.exit, label %37

37:                                               ; preds = %.lr.ph.i
  %indvars.iv.next.i = add nuw nsw i64 %indvars.iv.i, 1
  %exitcond.not.i = icmp eq i64 %indvars.iv.next.i, %wide.trip.count.i
  br i1 %exitcond.not.i, label %findIdx.exit.thread, label %.lr.ph.i, !llvm.loop !12

findIdx.exit.thread:                              ; preds = %37
  %38 = icmp slt i32 %.05681, 256
  br i1 %38, label %.thread, label %.loopexit

findIdx.exit:                                     ; preds = %.lr.ph.i
  %39 = trunc i64 %indvars.iv.i to i8
  br label %.loopexit112.sink.split

.loopexit112.sink.split:                          ; preds = %31, %findIdx.exit
  %.sink = phi i8 [ %39, %findIdx.exit ], [ %32, %31 ]
  %.264.ph = phi i32 [ %.06279.ph, %findIdx.exit ], [ %.163, %31 ]
  %.261.ph = phi i32 [ %.05980.ph, %findIdx.exit ], [ %.160, %31 ]
  %.258.ph = phi i32 [ %.05681, %findIdx.exit ], [ %.157, %31 ]
  %.2.ph = phi i32 [ %.05582, %findIdx.exit ], [ %.1, %31 ]
  %40 = getelementptr inbounds i8, ptr %5, i64 %indvars.iv88
  store i8 %.sink, ptr %40, align 1
  br label %.loopexit112

.loopexit112:                                     ; preds = %16, %.loopexit112.sink.split
  %.264 = phi i32 [ %.264.ph, %.loopexit112.sink.split ], [ %.06279.ph, %16 ]
  %.261 = phi i32 [ %.261.ph, %.loopexit112.sink.split ], [ %.05980.ph, %16 ]
  %.258 = phi i32 [ %.258.ph, %.loopexit112.sink.split ], [ %.05681, %16 ]
  %.2 = phi i32 [ %.2.ph, %.loopexit112.sink.split ], [ %.05582, %16 ]
  %indvars.iv.next89 = add nuw nsw i64 %indvars.iv88, 1
  %exitcond92.not = icmp eq i64 %indvars.iv.next89, %wide.trip.count91
  br i1 %exitcond92.not, label %._crit_edge, label %.lr.ph83.outer, !llvm.loop !13

.lr.ph83.outer:                                   ; preds = %.loopexit112, %.lr.ph83.preheader
  %indvars.iv88.ph = phi i64 [ %indvars.iv.next89, %.loopexit112 ], [ 0, %.lr.ph83.preheader ]
  %.05582.ph = phi i32 [ %.2, %.loopexit112 ], [ 0, %.lr.ph83.preheader ]
  %.05681.ph = phi i32 [ %.258, %.loopexit112 ], [ %1, %.lr.ph83.preheader ]
  %.05980.ph = phi i32 [ %.261, %.loopexit112 ], [ -1, %.lr.ph83.preheader ]
  %.06279.ph = phi i32 [ %.264, %.loopexit112 ], [ %2, %.lr.ph83.preheader ]
  br label %.lr.ph83

.thread:                                          ; preds = %.preheader15.i, %findIdx.exit.thread
  %41 = getelementptr inbounds i32, ptr %0, i64 %wide.trip.count.i
  store i32 %22, ptr %41, align 4
  %42 = trunc nuw i32 %.05681 to i8
  %43 = getelementptr inbounds i8, ptr %5, i64 %indvars.iv88
  store i8 %42, ptr %43, align 1
  %44 = add nuw nsw i32 %.05681, 1
  %indvars.iv.next89101 = add nuw nsw i64 %indvars.iv88, 1
  %exitcond92.not102 = icmp eq i64 %indvars.iv.next89101, %wide.trip.count91
  br i1 %exitcond92.not102, label %._crit_edge.thread106, label %.lr.ph83, !llvm.loop !13

._crit_edge:                                      ; preds = %.loopexit112
  %45 = icmp eq i32 %.2, 0
  br i1 %45, label %.loopexit, label %._crit_edge.thread106

._crit_edge.thread106:                            ; preds = %.thread, %._crit_edge
  %.261103111 = phi i32 [ %.261, %._crit_edge ], [ %.05980.ph, %.thread ]
  %.258104110 = phi i32 [ %.258, %._crit_edge ], [ %44, %.thread ]
  store i32 0, ptr %8, align 4
  store i32 %.258104110, ptr %6, align 4
  %.not68 = icmp eq i32 %.261103111, -1
  br i1 %.not68, label %.loopexit, label %46

46:                                               ; preds = %._crit_edge.thread106
  store i32 %.261103111, ptr %7, align 4
  br label %.loopexit

.loopexit:                                        ; preds = %26, %findIdx.exit.thread, %.preheader, %._crit_edge, %46, %._crit_edge.thread106
  %.0 = phi i32 [ 1, %._crit_edge.thread106 ], [ 1, %46 ], [ 1, %._crit_edge ], [ 1, %.preheader ], [ 0, %findIdx.exit.thread ], [ 0, %26 ]
  ret i32 %.0
}